target datalayout = "e-m:e-p270:32:32-p271:32:32-p272:64:64-i64:64-i128:128-f80:128-n8:16:32:64-S128"
target triple = "x86_64-pc-linux-gnu"

%struct.AVCodecContext = type { ptr, i32, i32, ptr, i32, i32, ptr, ptr, ptr, i64, i32, i32, ptr, i32, %struct.AVRational, %struct.AVRational, %struct.AVRational, i32, i32, i32, i32, i32, %struct.AVRational, i32, i32, i32, i32, i32, i32, i32, i32, i32, i32, i32, ptr, ptr, i32, float, float, float, float, float, float, float, float, float, i32, i32, i32, i32, i32, i32, i32, i32, i32, i32, i32, i32, ptr, ptr, ptr, i32, i32, i32, i32, i32, i32, i32, i32, i32, i32, %struct.AVChannelLayout, i32, i32, i32, i32, i32, i32, i32, i32, ptr, i32, i32, i32, float, float, i32, i32, i32, i32, i32, ptr, i64, i64, float, float, i32, i32, ptr, ptr, i32, i32, i32, i32, i32, ptr, ptr, ptr, ptr, i32, i32, [8 x i64], i32, i32, i32, i32, i32, i32, i32, ptr, ptr, i32, i32, i32, i32, i32, i32, i32, i32, i32, i32, ptr, ptr, i32, i32, ptr, ptr, ptr, ptr, i32, i32, i64, i32, i32, i64, ptr, i64, ptr, i32, ptr, i32 }
%struct.AVRational = type { i32, i32 }
%struct.AVChannelLayout = type { i32, i32, %union.anon.0, ptr }
%union.anon.0 = type { i64 }
%struct.TsccContext = type { ptr, ptr, i32, i32, ptr, %struct.GetByteContext, i32, %struct.FFZStream, [256 x i32] }
%struct.GetByteContext = type { ptr, ptr, ptr }
%struct.FFZStream = type { %struct.z_stream_s, i32 }
%struct.z_stream_s = type { ptr, i32, i64, ptr, i32, i64, ptr, ptr, ptr, ptr, ptr, i32, i64, i64 }

@.str.2 = private unnamed_addr constant [38 x i8] c"Camtasia error: unknown depth %i bpp\0A\00", align 1
@.str.3 = private unnamed_addr constant [38 x i8] c"Can't allocate decompression buffer.\0A\00", align 1

; Function Attrs: cold nounwind optsize uwtable
define internal i32 @decode_init(ptr noundef %0) #0 {
  %2 = alloca i32, align 4
  %3 = alloca ptr, align 8
  %4 = alloca ptr, align 8
  %5 = alloca i32, align 4
  store ptr %0, ptr %3, align 8, !tbaa !4
  call void @llvm.lifetime.start.p0(i64 8, ptr %4) #7
  %6 = load ptr, ptr %3, align 8, !tbaa !4
  %7 = getelementptr inbounds nuw %struct.AVCodecContext, ptr %6, i32 0, i32 6
  %8 = load ptr, ptr %7, align 8, !tbaa !9
  store ptr %8, ptr %4, align 8, !tbaa !29
  %9 = load ptr, ptr %3, align 8, !tbaa !4
  %10 = load ptr, ptr %4, align 8, !tbaa !29
  %11 = getelementptr inbounds nuw %struct.TsccContext, ptr %10, i32 0, i32 0
  store ptr %9, ptr %11, align 8, !tbaa !31
  %12 = load ptr, ptr %3, align 8, !tbaa !4
  %13 = getelementptr inbounds nuw %struct.AVCodecContext, ptr %12, i32 0, i32 19
  %14 = load i32, ptr %13, align 4, !tbaa !38
  %15 = load ptr, ptr %4, align 8, !tbaa !29
  %16 = getelementptr inbounds nuw %struct.TsccContext, ptr %15, i32 0, i32 6
  store i32 %14, ptr %16, align 8, !tbaa !39
  %17 = load ptr, ptr %3, align 8, !tbaa !4
  %18 = getelementptr inbounds nuw %struct.AVCodecContext, ptr %17, i32 0, i32 114
  %19 = load i32, ptr %18, align 8, !tbaa !40
  switch i32 %19, label %32 [
    i32 8, label %20
    i32 16, label %23
    i32 24, label %26
    i32 32, label %29
  ]

20:                                               ; preds = %1
  %21 = load ptr, ptr %3, align 8, !tbaa !4
  %22 = getelementptr inbounds nuw %struct.AVCodecContext, ptr %21, i32 0, i32 23
  store i32 11, ptr %22, align 8, !tbaa !41
  br label %37

23:                                               ; preds = %1
  %24 = load ptr, ptr %3, align 8, !tbaa !4
  %25 = getelementptr inbounds nuw %struct.AVCodecContext, ptr %24, i32 0, i32 23
  store i32 39, ptr %25, align 8, !tbaa !41
  br label %37

26:                                               ; preds = %1
  %27 = load ptr, ptr %3, align 8, !tbaa !4
  %28 = getelementptr inbounds nuw %struct.AVCodecContext, ptr %27, i32 0, i32 23
  store i32 3, ptr %28, align 8, !tbaa !41
  br label %37

29:                                               ; preds = %1
  %30 = load ptr, ptr %3, align 8, !tbaa !4
  %31 = getelementptr inbounds nuw %struct.AVCodecContext, ptr %30, i32 0, i32 23
  store i32 121, ptr %31, align 8, !tbaa !41
  br label %37

32:                                               ; preds = %1
  %33 = load ptr, ptr %3, align 8, !tbaa !4
  %34 = load ptr, ptr %3, align 8, !tbaa !4
  %35 = getelementptr inbounds nuw %struct.AVCodecContext, ptr %34, i32 0, i32 114
  %36 = load i32, ptr %35, align 8, !tbaa !40
  call void (ptr, i32, ptr, ...) @av_log(ptr noundef %33, i32 noundef 16, ptr noundef @.str.2, i32 noundef %36)
  store i32 -1163346256, ptr %2, align 4
  store i32 1, ptr %5, align 4
  br label %95

37:                                               ; preds = %29, %26, %23, %20
  %38 = load ptr, ptr %3, align 8, !tbaa !4
  %39 = getelementptr inbounds nuw %struct.AVCodecContext, ptr %38, i32 0, i32 114
  %40 = load i32, ptr %39, align 8, !tbaa !40
  %41 = load ptr, ptr %4, align 8, !tbaa !29
  %42 = getelementptr inbounds nuw %struct.TsccContext, ptr %41, i32 0, i32 2
  store i32 %40, ptr %42, align 8, !tbaa !42
  %43 = load ptr, ptr %3, align 8, !tbaa !4
  %44 = getelementptr inbounds nuw %struct.AVCodecContext, ptr %43, i32 0, i32 18
  %45 = load i32, ptr %44, align 8, !tbaa !43
  %46 = load ptr, ptr %4, align 8, !tbaa !29
  %47 = getelementptr inbounds nuw %struct.TsccContext, ptr %46, i32 0, i32 2
  %48 = load i32, ptr %47, align 8, !tbaa !42
  %49 = mul nsw i32 %45, %48
  %50 = add nsw i32 %49, 7
  %51 = ashr i32 %50, 3
  %52 = load ptr, ptr %3, align 8, !tbaa !4
  %53 = getelementptr inbounds nuw %struct.AVCodecContext, ptr %52, i32 0, i32 18
  %54 = load i32, ptr %53, align 8, !tbaa !43
  %55 = mul nsw i32 3, %54
  %56 = add nsw i32 %51, %55
  %57 = add nsw i32 %56, 2
  %58 = load ptr, ptr %3, align 8, !tbaa !4
  %59 = getelementptr inbounds nuw %struct.AVCodecContext, ptr %58, i32 0, i32 19
  %60 = load i32, ptr %59, align 4, !tbaa !38
  %61 = mul nsw i32 %57, %60
  %62 = add nsw i32 %61, 2
  %63 = load ptr, ptr %4, align 8, !tbaa !29
  %64 = getelementptr inbounds nuw %struct.TsccContext, ptr %63, i32 0, i32 3
  store i32 %62, ptr %64, align 4, !tbaa !44
  %65 = load ptr, ptr %4, align 8, !tbaa !29
  %66 = getelementptr inbounds nuw %struct.TsccContext, ptr %65, i32 0, i32 3
  %67 = load i32, ptr %66, align 4, !tbaa !44
  %68 = icmp ne i32 %67, 0
  br i1 %68, label %69, label %81

69:                                               ; preds = %37
  %70 = load ptr, ptr %4, align 8, !tbaa !29
  %71 = getelementptr inbounds nuw %struct.TsccContext, ptr %70, i32 0, i32 3
  %72 = load i32, ptr %71, align 4, !tbaa !44
  %73 = zext i32 %72 to i64
  %74 = call noalias ptr @av_malloc(i64 noundef %73)
  %75 = load ptr, ptr %4, align 8, !tbaa !29
  %76 = getelementptr inbounds nuw %struct.TsccContext, ptr %75, i32 0, i32 4
  store ptr %74, ptr %76, align 8, !tbaa !45
  %77 = icmp ne ptr %74, null
  br i1 %77, label %80, label %78

78:                                               ; preds = %69
  %79 = load ptr, ptr %3, align 8, !tbaa !4
  call void (ptr, i32, ptr, ...) @av_log(ptr noundef %79, i32 noundef 16, ptr noundef @.str.3)
  store i32 -12, ptr %2, align 4
  store i32 1, ptr %5, align 4
  br label %95

80:                                               ; preds = %69
  br label %81

81:                                               ; preds = %80, %37
  %82 = call ptr @av_frame_alloc()
  %83 = load ptr, ptr %4, align 8, !tbaa !29
  %84 = getelementptr inbounds nuw %struct.TsccContext, ptr %83, i32 0, i32 1
  store ptr %82, ptr %84, align 8, !tbaa !46
  %85 = load ptr, ptr %4, align 8, !tbaa !29
  %86 = getelementptr inbounds nuw %struct.TsccContext, ptr %85, i32 0, i32 1
  %87 = load ptr, ptr %86, align 8, !tbaa !46
  %88 = icmp ne ptr %87, null
  br i1 %88, label %90, label %89

89:                                               ; preds = %81
  store i32 -12, ptr %2, align 4
  store i32 1, ptr %5, align 4
  br label %95

90:                                               ; preds = %81
  %91 = load ptr, ptr %4, align 8, !tbaa !29
  %92 = getelementptr inbounds nuw %struct.TsccContext, ptr %91, i32 0, i32 7
  %93 = load ptr, ptr %3, align 8, !tbaa !4
  %94 = call i32 @ff_inflate_init(ptr noundef %92, ptr noundef %93)
  store i32 %94, ptr %2, align 4
  store i32 1, ptr %5, align 4
  br label %95

95:                                               ; preds = %90, %89, %78, %32
  call void @llvm.lifetime.end.p0(i64 8, ptr %4) #7
  %96 = load i32, ptr %2, align 4
  ret i32 %96
}