; Function Attrs: cold nounwind optsize uwtable
define internal i32 @decode_init(ptr noundef %0) #0 {
  %2 = getelementptr inbounds nuw i8, ptr %0, i64 32
  %3 = load ptr, ptr %2, align 8, !tbaa !4
  store ptr %0, ptr %3, align 8, !tbaa !27
  %4 = getelementptr inbounds nuw i8, ptr %0, i64 116
  %5 = load i32, ptr %4, align 4, !tbaa !35
  %6 = getelementptr inbounds nuw i8, ptr %3, i64 56
  store i32 %5, ptr %6, align 8, !tbaa !36
  %7 = getelementptr inbounds nuw i8, ptr %0, i64 648
  %8 = load i32, ptr %7, align 8, !tbaa !37
  %9 = add i32 %8, -8
  %10 = tail call i32 @llvm.fshl.i32(i32 %9, i32 %9, i32 29)
  %11 = icmp ult i32 %10, 4
  br i1 %11, label %switch.lookup, label %12

12:                                               ; preds = %1
  tail call void (ptr, i32, ptr, ...) @av_log(ptr noundef nonnull %0, i32 noundef 16, ptr noundef nonnull @.str.2, i32 noundef %8) #6
  br label %38

switch.lookup:                                    ; preds = %1
  %13 = zext nneg i32 %10 to i64
  %switch.gep = getelementptr inbounds nuw [4 x i32], ptr @switch.table.decode_init, i64 0, i64 %13
  %switch.load = load i32, ptr %switch.gep, align 4
  %14 = getelementptr inbounds nuw i8, ptr %0, i64 136
  store i32 %switch.load, ptr %14, align 8, !tbaa !38
  %15 = getelementptr inbounds nuw i8, ptr %3, i64 16
  store i32 %8, ptr %15, align 8, !tbaa !39
  %16 = getelementptr inbounds nuw i8, ptr %0, i64 112
  %17 = load i32, ptr %16, align 8, !tbaa !40
  %18 = mul nsw i32 %17, %8
  %19 = add nsw i32 %18, 7
  %20 = ashr i32 %19, 3
  %21 = mul nsw i32 %17, 3
  %22 = add i32 %21, 2
  %23 = add i32 %22, %20
  %24 = mul nsw i32 %23, %5
  %25 = add nsw i32 %24, 2
  %26 = getelementptr inbounds nuw i8, ptr %3, i64 20
  store i32 %25, ptr %26, align 4, !tbaa !41
  %.not = icmp eq i32 %25, 0
  br i1 %.not, label %32, label %27

27:                                               ; preds = %switch.lookup
  %28 = zext i32 %25 to i64
  %29 = tail call noalias ptr @av_malloc(i64 noundef %28) #6
  %30 = getelementptr inbounds nuw i8, ptr %3, i64 24
  store ptr %29, ptr %30, align 8, !tbaa !42
  %.not28 = icmp eq ptr %29, null
  br i1 %.not28, label %31, label %32

31:                                               ; preds = %27
  tail call void (ptr, i32, ptr, ...) @av_log(ptr noundef nonnull %0, i32 noundef 16, ptr noundef nonnull @.str.3) #6
  br label %38

32:                                               ; preds = %27, %switch.lookup
  %33 = tail call ptr @av_frame_alloc() #6
  %34 = getelementptr inbounds nuw i8, ptr %3, i64 8
  store ptr %33, ptr %34, align 8, !tbaa !43
  %.not29 = icmp eq ptr %33, null
  br i1 %.not29, label %38, label %35

35:                                               ; preds = %32
  %36 = getelementptr inbounds nuw i8, ptr %3, i64 64
  %37 = tail call i32 @ff_inflate_init(ptr noundef nonnull %36, ptr noundef nonnull %0) #6
  br label %38

38:                                               ; preds = %32, %35, %31, %12
  %.0 = phi i32 [ -1163346256, %12 ], [ %37, %35 ], [ -12, %31 ], [ -12, %32 ]
  ret i32 %.0
}